

Microchip MPLAB XC8 Assembler V2.41 build 20230208172133 
                                                                                               Fri Oct 06 21:15:29 2023

Microchip MPLAB XC8 C Compiler v2.41 (Free license) build 20230208172133 Og1 
     1                           	processor	16F877A
     2                           	pagewidth 120
     3                           	opt	flic
     4                           	psect	idataCOMMON,global,class=CODE,delta=2,noexec
     5                           	psect	cinit,global,class=CODE,merge=1,delta=2
     6                           	psect	dataCOMMON,global,class=COMMON,space=1,delta=1,noexec
     7                           	psect	cstackCOMMON,global,class=COMMON,space=1,delta=1,noexec
     8                           	psect	maintext,global,class=CODE,split=1,delta=2
     9                           	psect	text1,local,class=CODE,merge=1,delta=2
    10                           	psect	text2,local,class=CODE,merge=1,delta=2
    11                           	psect	text3,local,class=CODE,merge=1,delta=2
    12                           	psect	text4,local,class=CODE,merge=1,delta=2
    13                           	psect	config,global,abs,ovrld,class=CONFIG,space=4,delta=2,noexec
    14                           	dabs	1,0x7E,2
    15     0000                     
    16                           ; Generated 22/03/2023 GMT
    17                           ; 
    18                           ; Copyright © 2023, Microchip Technology Inc. and its subsidiaries ("Microchip")
    19                           ; All rights reserved.
    20                           ; 
    21                           ; This software is developed by Microchip Technology Inc. and its subsidiaries ("Microch
      +                          ip").
    22                           ; 
    23                           ; Redistribution and use in source and binary forms, with or without modification, are
    24                           ; permitted provided that the following conditions are met:
    25                           ; 
    26                           ;     1. Redistributions of source code must retain the above copyright notice, this lis
      +                          t of
    27                           ;        conditions and the following disclaimer.
    28                           ; 
    29                           ;     2. Redistributions in binary form must reproduce the above copyright notice, this 
      +                          list
    30                           ;        of conditions and the following disclaimer in the documentation and/or other
    31                           ;        materials provided with the distribution. Publication is not required when
    32                           ;        this file is used in an embedded application.
    33                           ; 
    34                           ;     3. Microchip's name may not be used to endorse or promote products derived from th
      +                          is
    35                           ;        software without specific prior written permission.
    36                           ; 
    37                           ; THIS SOFTWARE IS PROVIDED BY MICROCHIP "AS IS" AND ANY EXPRESS OR IMPLIED WARRANTIES,
    38                           ; INCLUDING, BUT NOT LIMITED TO, THE IMPLIED WARRANTIES OF MERCHANTABILITY AND FITNESS F
      +                          OR
    39                           ; PURPOSE ARE DISCLAIMED.  IN NO EVENT SHALL MICROCHIP BE LIABLE FOR ANY DIRECT, INDIREC
      +                          T,
    40                           ; INCIDENTAL, SPECIAL, EXEMPLARY, OR CONSEQUENTIAL DAMAGES (INCLUDING BUT NOT LIMITED TO
    41                           ; PROCUREMENT OF SUBSTITUTE GOODS OR SERVICES; LOSS OF USE, DATA OR PROFITS; OR BUSINESS
    42                           ; INTERRUPTION) HOWSOEVER CAUSED AND ON ANY THEORY OF LIABILITY, WHETHER IN CONTRACT, ST
      +                          RICT
    43                           ; LIABILITY, OR TORT (INCLUDING NEGLIGENCE OR OTHERWISE) ARISING IN ANY WAY OUT OF THE U
      +                          SE OF
    44                           ; THIS SOFTWARE, EVEN IF ADVISED OF THE POSSIBILITY OF SUCH DAMAGE.
    45                           ; 
    46                           ; 
    47                           ; Code-generator required, PIC16F877A Definitions
    48                           ; 
    49                           ; SFR Addresses
    50     0000                     	;# 
    51     0001                     	;# 
    52     0002                     	;# 
    53     0003                     	;# 
    54     0004                     	;# 
    55     0005                     	;# 
    56     0006                     	;# 
    57     0007                     	;# 
    58     0008                     	;# 
    59     0009                     	;# 
    60     000A                     	;# 
    61     000B                     	;# 
    62     000C                     	;# 
    63     000D                     	;# 
    64     000E                     	;# 
    65     000E                     	;# 
    66     000F                     	;# 
    67     0010                     	;# 
    68     0011                     	;# 
    69     0012                     	;# 
    70     0013                     	;# 
    71     0014                     	;# 
    72     0015                     	;# 
    73     0015                     	;# 
    74     0016                     	;# 
    75     0017                     	;# 
    76     0018                     	;# 
    77     0019                     	;# 
    78     001A                     	;# 
    79     001B                     	;# 
    80     001B                     	;# 
    81     001C                     	;# 
    82     001D                     	;# 
    83     001E                     	;# 
    84     001F                     	;# 
    85     0081                     	;# 
    86     0085                     	;# 
    87     0086                     	;# 
    88     0087                     	;# 
    89     0088                     	;# 
    90     0089                     	;# 
    91     008C                     	;# 
    92     008D                     	;# 
    93     008E                     	;# 
    94     0091                     	;# 
    95     0092                     	;# 
    96     0093                     	;# 
    97     0094                     	;# 
    98     0098                     	;# 
    99     0099                     	;# 
   100     009C                     	;# 
   101     009D                     	;# 
   102     009E                     	;# 
   103     009F                     	;# 
   104     010C                     	;# 
   105     010D                     	;# 
   106     010E                     	;# 
   107     010F                     	;# 
   108     018C                     	;# 
   109     018D                     	;# 
   110     0000                     	;# 
   111     0001                     	;# 
   112     0002                     	;# 
   113     0003                     	;# 
   114     0004                     	;# 
   115     0005                     	;# 
   116     0006                     	;# 
   117     0007                     	;# 
   118     0008                     	;# 
   119     0009                     	;# 
   120     000A                     	;# 
   121     000B                     	;# 
   122     000C                     	;# 
   123     000D                     	;# 
   124     000E                     	;# 
   125     000E                     	;# 
   126     000F                     	;# 
   127     0010                     	;# 
   128     0011                     	;# 
   129     0012                     	;# 
   130     0013                     	;# 
   131     0014                     	;# 
   132     0015                     	;# 
   133     0015                     	;# 
   134     0016                     	;# 
   135     0017                     	;# 
   136     0018                     	;# 
   137     0019                     	;# 
   138     001A                     	;# 
   139     001B                     	;# 
   140     001B                     	;# 
   141     001C                     	;# 
   142     001D                     	;# 
   143     001E                     	;# 
   144     001F                     	;# 
   145     0081                     	;# 
   146     0085                     	;# 
   147     0086                     	;# 
   148     0087                     	;# 
   149     0088                     	;# 
   150     0089                     	;# 
   151     008C                     	;# 
   152     008D                     	;# 
   153     008E                     	;# 
   154     0091                     	;# 
   155     0092                     	;# 
   156     0093                     	;# 
   157     0094                     	;# 
   158     0098                     	;# 
   159     0099                     	;# 
   160     009C                     	;# 
   161     009D                     	;# 
   162     009E                     	;# 
   163     009F                     	;# 
   164     010C                     	;# 
   165     010D                     	;# 
   166     010E                     	;# 
   167     010F                     	;# 
   168     018C                     	;# 
   169     018D                     	;# 
   170     0000                     	;# 
   171     0001                     	;# 
   172     0002                     	;# 
   173     0003                     	;# 
   174     0004                     	;# 
   175     0005                     	;# 
   176     0006                     	;# 
   177     0007                     	;# 
   178     0008                     	;# 
   179     0009                     	;# 
   180     000A                     	;# 
   181     000B                     	;# 
   182     000C                     	;# 
   183     000D                     	;# 
   184     000E                     	;# 
   185     000E                     	;# 
   186     000F                     	;# 
   187     0010                     	;# 
   188     0011                     	;# 
   189     0012                     	;# 
   190     0013                     	;# 
   191     0014                     	;# 
   192     0015                     	;# 
   193     0015                     	;# 
   194     0016                     	;# 
   195     0017                     	;# 
   196     0018                     	;# 
   197     0019                     	;# 
   198     001A                     	;# 
   199     001B                     	;# 
   200     001B                     	;# 
   201     001C                     	;# 
   202     001D                     	;# 
   203     001E                     	;# 
   204     001F                     	;# 
   205     0081                     	;# 
   206     0085                     	;# 
   207     0086                     	;# 
   208     0087                     	;# 
   209     0088                     	;# 
   210     0089                     	;# 
   211     008C                     	;# 
   212     008D                     	;# 
   213     008E                     	;# 
   214     0091                     	;# 
   215     0092                     	;# 
   216     0093                     	;# 
   217     0094                     	;# 
   218     0098                     	;# 
   219     0099                     	;# 
   220     009C                     	;# 
   221     009D                     	;# 
   222     009E                     	;# 
   223     009F                     	;# 
   224     010C                     	;# 
   225     010D                     	;# 
   226     010E                     	;# 
   227     010F                     	;# 
   228     018C                     	;# 
   229     018D                     	;# 
   230                           
   231                           	psect	idataCOMMON
   232     06B5                     __pidataCOMMON:
   233                           
   234                           ;initializer for read_matrix_keypad@once
   235     06B5  3401               	retlw	1
   236     0044                     _RD4	set	68
   237     0032                     _RB2	set	50
   238     0031                     _RB1	set	49
   239     0030                     _RB0	set	48
   240     0040                     _RD0	set	64
   241     0041                     _RD1	set	65
   242     0042                     _RD2	set	66
   243     0043                     _RD3	set	67
   244     0088                     _TRISD	set	136
   245     0086                     _TRISB	set	134
   246     0444                     _TRISD4	set	1092
   247     040F                     _nRBPU	set	1039
   248                           
   249                           	psect	cinit
   250     07F6                     start_initialization:	
   251                           ; #config settings
   252                           
   253     07F6                     __initialization:
   254                           
   255                           ; Initialize objects allocated to COMMON
   256     07F6  120A  118A  26B5  120A  118A  	fcall	__pidataCOMMON	;fetch initializer
   257     07FB  00FD               	movwf	__pdataCOMMON& (0+127)
   258     07FC                     end_of_initialization:	
   259                           ;End of C runtime variable initialization code
   260                           
   261     07FC                     __end_of__initialization:
   262     07FC  0183               	clrf	3
   263     07FD  120A  118A  2EF5   	ljmp	_main	;jump to C main() function
   264                           
   265                           	psect	dataCOMMON
   266     007D                     __pdataCOMMON:
   267     007D                     read_matrix_keypad@once:
   268     007D                     	ds	1
   269                           
   270                           	psect	cstackCOMMON
   271     0070                     __pcstackCOMMON:
   272     0070                     ?_init_matrix_keypad:
   273     0070                     ??_init_matrix_keypad:	
   274                           ; 1 bytes @ 0x0
   275                           
   276     0070                     ?_scan_keypad:	
   277                           ; 1 bytes @ 0x0
   278                           
   279     0070                     ??_scan_keypad:	
   280                           ; 1 bytes @ 0x0
   281                           
   282     0070                     ?_read_matrix_keypad:	
   283                           ; 1 bytes @ 0x0
   284                           
   285     0070                     ?_init_config:	
   286                           ; 1 bytes @ 0x0
   287                           
   288     0070                     ??_init_config:	
   289                           ; 1 bytes @ 0x0
   290                           
   291     0070                     ?_main:	
   292                           ; 1 bytes @ 0x0
   293                           
   294     0070                     scan_keypad@i:	
   295                           ; 1 bytes @ 0x0
   296                           
   297                           
   298                           ; 2 bytes @ 0x0
   299     0070                     	ds	2
   300     0072                     ??_read_matrix_keypad:
   301     0072                     read_matrix_keypad@mode:	
   302                           ; 1 bytes @ 0x2
   303                           
   304                           
   305                           ; 1 bytes @ 0x2
   306     0072                     	ds	1
   307     0073                     read_matrix_keypad@key:
   308                           
   309                           ; 1 bytes @ 0x3
   310     0073                     	ds	1
   311     0074                     ??_main:
   312                           
   313                           ; 1 bytes @ 0x4
   314     0074                     	ds	4
   315     0078                     main@key:
   316                           
   317                           ; 1 bytes @ 0x8
   318     0078                     	ds	1
   319     0079                     main@delay:
   320                           
   321                           ; 4 bytes @ 0x9
   322     0079                     	ds	4
   323                           
   324                           	psect	maintext
   325     06F5                     __pmaintext:	
   326 ;;
   327 ;;Main: autosize = 0, tempsize = 4, incstack = 0, save=0
   328 ;;
   329 ;; *************** function _main *****************
   330 ;; Defined at:
   331 ;;		line 25 in file "main.c"
   332 ;; Parameters:    Size  Location     Type
   333 ;;		None
   334 ;; Auto vars:     Size  Location     Type
   335 ;;  delay           4    9[COMMON] unsigned long 
   336 ;;  key             1    8[COMMON] unsigned char 
   337 ;; Return value:  Size  Location     Type
   338 ;;                  1    wreg      void 
   339 ;; Registers used:
   340 ;;		wreg, status,2, status,0, btemp+1, pclath, cstack
   341 ;; Tracked objects:
   342 ;;		On entry : B00/0
   343 ;;		On exit  : 0/0
   344 ;;		Unchanged: 0/0
   345 ;; Data sizes:     COMMON   BANK0   BANK1   BANK3   BANK2
   346 ;;      Params:         0       0       0       0       0
   347 ;;      Locals:         5       0       0       0       0
   348 ;;      Temps:          4       0       0       0       0
   349 ;;      Totals:         9       0       0       0       0
   350 ;;Total ram usage:        9 bytes
   351 ;; Hardware stack levels required when called: 2
   352 ;; This function calls:
   353 ;;		_init_config
   354 ;;		_read_matrix_keypad
   355 ;; This function is called by:
   356 ;;		Startup code after reset
   357 ;; This function uses a non-reentrant model
   358 ;;
   359                           
   360     06F5                     _main:	
   361                           ;psect for function _main
   362                           
   363     06F5                     l831:	
   364                           ;incstack = 0
   365                           ; Regs used in _main: [wreg+status,2+status,0+btemp+1+pclath+cstack]
   366                           
   367                           
   368                           ;main.c: 26: }
   369     06F5  120A  118A  26B6  120A  118A  	fcall	_init_config
   370     06FA                     l833:
   371     06FA  3000               	movlw	0
   372     06FB  120A  118A  26D2  120A  118A  	fcall	_read_matrix_keypad
   373     0700  00F8               	movwf	main@key
   374     0701                     l835:
   375     0701  302A               	movlw	42
   376     0702  0678               	xorwf	main@key,w
   377     0703  1D03               	btfss	3,2
   378     0704  2F06               	goto	u211
   379     0705  2F07               	goto	u210
   380     0706                     u211:
   381     0706  2EFA               	goto	l833
   382     0707                     u210:
   383     0707                     l837:
   384     0707  3010               	movlw	16
   385     0708  1283               	bcf	3,5	;RP0=0, select bank0
   386     0709  1303               	bcf	3,6	;RP1=0, select bank0
   387     070A  0688               	xorwf	8,f
   388     070B  3000               	movlw	0
   389     070C  00FC               	movwf	main@delay+3
   390     070D  3000               	movlw	0
   391     070E  00FB               	movwf	main@delay+2
   392     070F  30C3               	movlw	195
   393     0710  00FA               	movwf	main@delay+1
   394     0711  3050               	movlw	80
   395     0712  00F9               	movwf	main@delay
   396     0713                     l841:
   397     0713  3001               	movlw	1
   398     0714  00F4               	movwf	??_main
   399     0715  3000               	movlw	0
   400     0716  00F5               	movwf	??_main+1
   401     0717  3000               	movlw	0
   402     0718  00F6               	movwf	??_main+2
   403     0719  3000               	movlw	0
   404     071A  00F7               	movwf	??_main+3
   405     071B  0874               	movf	??_main,w
   406     071C  02F9               	subwf	main@delay,f
   407     071D  0875               	movf	??_main+1,w
   408     071E  1C03               	skipc
   409     071F  0F75               	incfsz	??_main+1,w
   410     0720  2F22               	goto	u225
   411     0721  2F23               	goto	u226
   412     0722                     u225:
   413     0722  02FA               	subwf	main@delay+1,f
   414     0723                     u226:
   415     0723  0876               	movf	??_main+2,w
   416     0724  1C03               	skipc
   417     0725  0F76               	incfsz	??_main+2,w
   418     0726  2F28               	goto	u227
   419     0727  2F29               	goto	u228
   420     0728                     u227:
   421     0728  02FB               	subwf	main@delay+2,f
   422     0729                     u228:
   423     0729  0877               	movf	??_main+3,w
   424     072A  1C03               	skipc
   425     072B  0F77               	incfsz	??_main+3,w
   426     072C  2F2E               	goto	u229
   427     072D  2F2F               	goto	u220
   428     072E                     u229:
   429     072E  02FC               	subwf	main@delay+3,f
   430     072F                     u220:
   431     072F  087C               	movf	main@delay+3,w
   432     0730  047B               	iorwf	main@delay+2,w
   433     0731  047A               	iorwf	main@delay+1,w
   434     0732  0479               	iorwf	main@delay,w
   435     0733  1D03               	skipz
   436     0734  2F36               	goto	u231
   437     0735  2F37               	goto	u230
   438     0736                     u231:
   439     0736  2F13               	goto	l841
   440     0737                     u230:
   441     0737  2EFA               	goto	l833
   442     0738  120A  118A  2800   	ljmp	start
   443     073B                     __end_of_main:
   444                           
   445                           	psect	text1
   446     06D2                     __ptext1:	
   447 ;; *************** function _read_matrix_keypad *****************
   448 ;; Defined at:
   449 ;;		line 122 in file "matrix_keypad.c"
   450 ;; Parameters:    Size  Location     Type
   451 ;;  mode            1    wreg     unsigned char 
   452 ;; Auto vars:     Size  Location     Type
   453 ;;  mode            1    2[COMMON] unsigned char 
   454 ;;  key             1    3[COMMON] unsigned char 
   455 ;; Return value:  Size  Location     Type
   456 ;;                  1    wreg      unsigned char 
   457 ;; Registers used:
   458 ;;		wreg, status,2, status,0, btemp+1, pclath, cstack
   459 ;; Tracked objects:
   460 ;;		On entry : 0/0
   461 ;;		On exit  : 0/0
   462 ;;		Unchanged: 0/0
   463 ;; Data sizes:     COMMON   BANK0   BANK1   BANK3   BANK2
   464 ;;      Params:         0       0       0       0       0
   465 ;;      Locals:         2       0       0       0       0
   466 ;;      Temps:          0       0       0       0       0
   467 ;;      Totals:         2       0       0       0       0
   468 ;;Total ram usage:        2 bytes
   469 ;; Hardware stack levels used: 1
   470 ;; Hardware stack levels required when called: 1
   471 ;; This function calls:
   472 ;;		_scan_keypad
   473 ;; This function is called by:
   474 ;;		_main
   475 ;; This function uses a non-reentrant model
   476 ;;
   477                           
   478     06D2                     _read_matrix_keypad:	
   479                           ;psect for function _read_matrix_keypad
   480                           
   481                           
   482                           ;incstack = 0
   483                           ; Regs used in _read_matrix_keypad: [wreg+status,2+status,0+btemp+1+pclath+cstack]
   484                           ;read_matrix_keypad@mode stored from wreg
   485     06D2  00F2               	movwf	read_matrix_keypad@mode
   486     06D3                     l795:
   487                           
   488                           ;matrix_keypad.c: 122: unsigned char read_matrix_keypad(unsigned char mode);matrix_keypa
      +                          d.c: 123: {;matrix_keypad.c: 124:     static unsigned char once = 1;;matrix_keypad.c: 12
      +                          5:     unsigned char key;;matrix_keypad.c: 127:     key = scan_keypad();
   489     06D3  120A  118A  273B  120A  118A  	fcall	_scan_keypad
   490     06D8  00F3               	movwf	read_matrix_keypad@key
   491     06D9                     l797:
   492                           
   493                           ;matrix_keypad.c: 129:     if (mode == 0)
   494     06D9  0872               	movf	read_matrix_keypad@mode,w
   495     06DA  1D03               	btfss	3,2
   496     06DB  2EDD               	goto	u171
   497     06DC  2EDE               	goto	u170
   498     06DD                     u171:
   499     06DD  2EE0               	goto	l805
   500     06DE                     u170:
   501     06DE                     l799:
   502                           
   503                           ;matrix_keypad.c: 130:     {;matrix_keypad.c: 131:         return key;
   504     06DE  0873               	movf	read_matrix_keypad@key,w
   505     06DF  2EF4               	goto	l61
   506     06E0                     l805:
   507                           
   508                           ;matrix_keypad.c: 134:     {;matrix_keypad.c: 135:         if ((key != 0xFF) && once)
   509     06E0  0A73               	incf	read_matrix_keypad@key,w
   510     06E1  1903               	btfsc	3,2
   511     06E2  2EE4               	goto	u181
   512     06E3  2EE5               	goto	u180
   513     06E4                     u181:
   514     06E4  2EEC               	goto	l817
   515     06E5                     u180:
   516     06E5                     l807:
   517     06E5  087D               	movf	read_matrix_keypad@once,w
   518     06E6  1903               	btfsc	3,2
   519     06E7  2EE9               	goto	u191
   520     06E8  2EEA               	goto	u190
   521     06E9                     u191:
   522     06E9  2EEC               	goto	l817
   523     06EA                     u190:
   524     06EA                     l809:
   525                           
   526                           ;matrix_keypad.c: 136:         {;matrix_keypad.c: 137:             once = 0;
   527     06EA  01FD               	clrf	read_matrix_keypad@once
   528     06EB  2EDE               	goto	l799
   529     06EC                     l817:
   530     06EC  0A73               	incf	read_matrix_keypad@key,w
   531     06ED  1D03               	btfss	3,2
   532     06EE  2EF0               	goto	u201
   533     06EF  2EF1               	goto	u200
   534     06F0                     u201:
   535     06F0  2EF3               	goto	l821
   536     06F1                     u200:
   537     06F1                     l819:
   538                           
   539                           ;matrix_keypad.c: 142:         {;matrix_keypad.c: 143:             once = 1;
   540     06F1  01FD               	clrf	read_matrix_keypad@once
   541     06F2  0AFD               	incf	read_matrix_keypad@once,f
   542     06F3                     l821:
   543                           
   544                           ;matrix_keypad.c: 147:     return 0xFF;
   545     06F3  30FF               	movlw	255
   546     06F4                     l61:
   547     06F4  0008               	return
   548     06F5                     __end_of_read_matrix_keypad:
   549                           
   550                           	psect	text2
   551     073B                     __ptext2:	
   552 ;; *************** function _scan_keypad *****************
   553 ;; Defined at:
   554 ;;		line 32 in file "matrix_keypad.c"
   555 ;; Parameters:    Size  Location     Type
   556 ;;		None
   557 ;; Auto vars:     Size  Location     Type
   558 ;;  i               2    0[COMMON] int 
   559 ;; Return value:  Size  Location     Type
   560 ;;                  1    wreg      unsigned char 
   561 ;; Registers used:
   562 ;;		wreg, status,2, status,0, btemp+1
   563 ;; Tracked objects:
   564 ;;		On entry : 0/0
   565 ;;		On exit  : 0/0
   566 ;;		Unchanged: 0/0
   567 ;; Data sizes:     COMMON   BANK0   BANK1   BANK3   BANK2
   568 ;;      Params:         0       0       0       0       0
   569 ;;      Locals:         2       0       0       0       0
   570 ;;      Temps:          0       0       0       0       0
   571 ;;      Totals:         2       0       0       0       0
   572 ;;Total ram usage:        2 bytes
   573 ;; Hardware stack levels used: 1
   574 ;; This function calls:
   575 ;;		Nothing
   576 ;; This function is called by:
   577 ;;		_read_matrix_keypad
   578 ;; This function uses a non-reentrant model
   579 ;;
   580                           
   581     073B                     _scan_keypad:	
   582                           ;psect for function _scan_keypad
   583                           
   584     073B                     l691:	
   585                           ;incstack = 0
   586                           ; Regs used in _scan_keypad: [wreg+status,2+status,0+btemp+1]
   587                           
   588                           
   589                           ;matrix_keypad.c: 34:     int i;;matrix_keypad.c: 36:     RD3 = 0;
   590     073B  1283               	bcf	3,5	;RP0=0, select bank0
   591     073C  1303               	bcf	3,6	;RP1=0, select bank0
   592     073D  1188               	bcf	8,3	;volatile
   593                           
   594                           ;matrix_keypad.c: 37:     RD2 = 1;
   595     073E  1508               	bsf	8,2	;volatile
   596                           
   597                           ;matrix_keypad.c: 38:     RD1 = 1;
   598     073F  1488               	bsf	8,1	;volatile
   599                           
   600                           ;matrix_keypad.c: 39:     RD0 = 1;
   601     0740  1408               	bsf	8,0	;volatile
   602     0741                     l693:
   603                           
   604                           ;matrix_keypad.c: 41:     for (i = 100; i--; );
   605     0741  3064               	movlw	100
   606     0742  00F0               	movwf	scan_keypad@i
   607     0743  3000               	movlw	0
   608     0744  00F1               	movwf	scan_keypad@i+1
   609     0745                     l695:
   610     0745  30FF               	movlw	255
   611     0746  07F0               	addwf	scan_keypad@i,f
   612     0747  1803               	skipnc
   613     0748  0AF1               	incf	scan_keypad@i+1,f
   614     0749  30FF               	movlw	255
   615     074A  07F1               	addwf	scan_keypad@i+1,f
   616     074B  0A70               	incf	scan_keypad@i,w
   617     074C  1D03               	skipz
   618     074D  2F52               	goto	u11
   619     074E  0A71               	incf	scan_keypad@i+1,w
   620     074F  1D03               	btfss	3,2
   621     0750  2F52               	goto	u11
   622     0751  2F53               	goto	u10
   623     0752                     u11:
   624     0752  2F45               	goto	l695
   625     0753                     u10:
   626     0753                     l28:
   627                           
   628                           ;matrix_keypad.c: 43:     if (RB0 == 0)
   629     0753  1283               	bcf	3,5	;RP0=0, select bank0
   630     0754  1303               	bcf	3,6	;RP1=0, select bank0
   631     0755  1806               	btfsc	6,0	;volatile
   632     0756  2F58               	goto	u21
   633     0757  2F59               	goto	u20
   634     0758                     u21:
   635     0758  2F5B               	goto	l29
   636     0759                     u20:
   637     0759                     l697:
   638                           
   639                           ;matrix_keypad.c: 44:     {;matrix_keypad.c: 45:         return 1;
   640     0759  3001               	movlw	1
   641     075A  2FF5               	goto	l30
   642     075B                     l29:	
   643                           ;matrix_keypad.c: 47:     else if (RB1 == 0)
   644                           
   645     075B  1886               	btfsc	6,1	;volatile
   646     075C  2F5E               	goto	u31
   647     075D  2F5F               	goto	u30
   648     075E                     u31:
   649     075E  2F61               	goto	l32
   650     075F                     u30:
   651     075F                     l703:
   652                           
   653                           ;matrix_keypad.c: 48:     {;matrix_keypad.c: 49:         return 2;
   654     075F  3002               	movlw	2
   655     0760  2FF5               	goto	l30
   656     0761                     l32:	
   657                           ;matrix_keypad.c: 51:     else if (RB2 == 0)
   658                           
   659     0761  1906               	btfsc	6,2	;volatile
   660     0762  2F64               	goto	u41
   661     0763  2F65               	goto	u40
   662     0764                     u41:
   663     0764  2F67               	goto	l31
   664     0765                     u40:
   665     0765                     l709:
   666                           
   667                           ;matrix_keypad.c: 52:     {;matrix_keypad.c: 53:         return 3;
   668     0765  3003               	movlw	3
   669     0766  2FF5               	goto	l30
   670     0767                     l31:
   671                           
   672                           ;matrix_keypad.c: 56:     RD3 = 1;
   673     0767  1588               	bsf	8,3	;volatile
   674                           
   675                           ;matrix_keypad.c: 57:     RD2 = 0;
   676     0768  1108               	bcf	8,2	;volatile
   677                           
   678                           ;matrix_keypad.c: 58:     RD1 = 1;
   679     0769  1488               	bsf	8,1	;volatile
   680                           
   681                           ;matrix_keypad.c: 59:     RD0 = 1;
   682     076A  1408               	bsf	8,0	;volatile
   683     076B                     l713:
   684                           
   685                           ;matrix_keypad.c: 61:    for (i = 100; i > 0; i--)
   686     076B  3064               	movlw	100
   687     076C  00F0               	movwf	scan_keypad@i
   688     076D  3000               	movlw	0
   689     076E  00F1               	movwf	scan_keypad@i+1
   690     076F                     l719:
   691                           
   692                           ;matrix_keypad.c: 62:    {;matrix_keypad.c: 64:    }
   693     076F  30FF               	movlw	255
   694     0770  07F0               	addwf	scan_keypad@i,f
   695     0771  1803               	skipnc
   696     0772  0AF1               	incf	scan_keypad@i+1,f
   697     0773  30FF               	movlw	255
   698     0774  07F1               	addwf	scan_keypad@i+1,f
   699     0775                     l721:
   700     0775  0871               	movf	scan_keypad@i+1,w
   701     0776  3A80               	xorlw	128
   702     0777  00FF               	movwf	btemp+1
   703     0778  3080               	movlw	128
   704     0779  027F               	subwf	btemp+1,w
   705     077A  1D03               	skipz
   706     077B  2F7E               	goto	u55
   707     077C  3001               	movlw	1
   708     077D  0270               	subwf	scan_keypad@i,w
   709     077E                     u55:
   710     077E  1803               	skipnc
   711     077F  2F81               	goto	u51
   712     0780  2F82               	goto	u50
   713     0781                     u51:
   714     0781  2F6F               	goto	l719
   715     0782                     u50:
   716     0782                     l36:
   717                           
   718                           ;matrix_keypad.c: 66:     if (RB0 == 0)
   719     0782  1283               	bcf	3,5	;RP0=0, select bank0
   720     0783  1303               	bcf	3,6	;RP1=0, select bank0
   721     0784  1806               	btfsc	6,0	;volatile
   722     0785  2F87               	goto	u61
   723     0786  2F88               	goto	u60
   724     0787                     u61:
   725     0787  2F8A               	goto	l37
   726     0788                     u60:
   727     0788                     l723:
   728                           
   729                           ;matrix_keypad.c: 67:     {;matrix_keypad.c: 68:         return 4;
   730     0788  3004               	movlw	4
   731     0789  2FF5               	goto	l30
   732     078A                     l37:	
   733                           ;matrix_keypad.c: 70:     else if (RB1 == 0)
   734                           
   735     078A  1886               	btfsc	6,1	;volatile
   736     078B  2F8D               	goto	u71
   737     078C  2F8E               	goto	u70
   738     078D                     u71:
   739     078D  2F90               	goto	l39
   740     078E                     u70:
   741     078E                     l729:
   742                           
   743                           ;matrix_keypad.c: 71:     {;matrix_keypad.c: 72:         return 5;
   744     078E  3005               	movlw	5
   745     078F  2FF5               	goto	l30
   746     0790                     l39:	
   747                           ;matrix_keypad.c: 74:     else if (RB2 == 0)
   748                           
   749     0790  1906               	btfsc	6,2	;volatile
   750     0791  2F93               	goto	u81
   751     0792  2F94               	goto	u80
   752     0793                     u81:
   753     0793  2F96               	goto	l38
   754     0794                     u80:
   755     0794                     l735:
   756                           
   757                           ;matrix_keypad.c: 75:     {;matrix_keypad.c: 76:         return 6;
   758     0794  3006               	movlw	6
   759     0795  2FF5               	goto	l30
   760     0796                     l38:
   761                           
   762                           ;matrix_keypad.c: 79:     RD3 = 1;
   763     0796  1588               	bsf	8,3	;volatile
   764                           
   765                           ;matrix_keypad.c: 80:     RD2 = 1;
   766     0797  1508               	bsf	8,2	;volatile
   767                           
   768                           ;matrix_keypad.c: 81:     RD1 = 0;
   769     0798  1088               	bcf	8,1	;volatile
   770                           
   771                           ;matrix_keypad.c: 82:     RD0 = 1;
   772     0799  1408               	bsf	8,0	;volatile
   773     079A                     l739:
   774                           
   775                           ;matrix_keypad.c: 84:     for (i = 100; i > 0; i--);
   776     079A  3064               	movlw	100
   777     079B  00F0               	movwf	scan_keypad@i
   778     079C  3000               	movlw	0
   779     079D  00F1               	movwf	scan_keypad@i+1
   780     079E                     l745:
   781     079E  30FF               	movlw	255
   782     079F  07F0               	addwf	scan_keypad@i,f
   783     07A0  1803               	skipnc
   784     07A1  0AF1               	incf	scan_keypad@i+1,f
   785     07A2  30FF               	movlw	255
   786     07A3  07F1               	addwf	scan_keypad@i+1,f
   787     07A4                     l747:
   788     07A4  0871               	movf	scan_keypad@i+1,w
   789     07A5  3A80               	xorlw	128
   790     07A6  00FF               	movwf	btemp+1
   791     07A7  3080               	movlw	128
   792     07A8  027F               	subwf	btemp+1,w
   793     07A9  1D03               	skipz
   794     07AA  2FAD               	goto	u95
   795     07AB  3001               	movlw	1
   796     07AC  0270               	subwf	scan_keypad@i,w
   797     07AD                     u95:
   798     07AD  1803               	skipnc
   799     07AE  2FB0               	goto	u91
   800     07AF  2FB1               	goto	u90
   801     07B0                     u91:
   802     07B0  2F9E               	goto	l745
   803     07B1                     u90:
   804     07B1                     l43:
   805                           
   806                           ;matrix_keypad.c: 86:     if (RB0 == 0)
   807     07B1  1283               	bcf	3,5	;RP0=0, select bank0
   808     07B2  1303               	bcf	3,6	;RP1=0, select bank0
   809     07B3  1806               	btfsc	6,0	;volatile
   810     07B4  2FB6               	goto	u101
   811     07B5  2FB7               	goto	u100
   812     07B6                     u101:
   813     07B6  2FB9               	goto	l44
   814     07B7                     u100:
   815     07B7                     l749:
   816                           
   817                           ;matrix_keypad.c: 87:     {;matrix_keypad.c: 88:         return 7;
   818     07B7  3007               	movlw	7
   819     07B8  2FF5               	goto	l30
   820     07B9                     l44:	
   821                           ;matrix_keypad.c: 90:     else if (RB1 == 0)
   822                           
   823     07B9  1886               	btfsc	6,1	;volatile
   824     07BA  2FBC               	goto	u111
   825     07BB  2FBD               	goto	u110
   826     07BC                     u111:
   827     07BC  2FBF               	goto	l46
   828     07BD                     u110:
   829     07BD                     l755:
   830                           
   831                           ;matrix_keypad.c: 91:     {;matrix_keypad.c: 92:         return 8;
   832     07BD  3008               	movlw	8
   833     07BE  2FF5               	goto	l30
   834     07BF                     l46:	
   835                           ;matrix_keypad.c: 94:     else if (RB2 == 0)
   836                           
   837     07BF  1906               	btfsc	6,2	;volatile
   838     07C0  2FC2               	goto	u121
   839     07C1  2FC3               	goto	u120
   840     07C2                     u121:
   841     07C2  2FC5               	goto	l45
   842     07C3                     u120:
   843     07C3                     l761:
   844                           
   845                           ;matrix_keypad.c: 95:     {;matrix_keypad.c: 96:         return 9;
   846     07C3  3009               	movlw	9
   847     07C4  2FF5               	goto	l30
   848     07C5                     l45:
   849                           
   850                           ;matrix_keypad.c: 99:     RD3 = 1;
   851     07C5  1588               	bsf	8,3	;volatile
   852                           
   853                           ;matrix_keypad.c: 100:     RD2 = 1;
   854     07C6  1508               	bsf	8,2	;volatile
   855                           
   856                           ;matrix_keypad.c: 101:     RD1 = 1;
   857     07C7  1488               	bsf	8,1	;volatile
   858                           
   859                           ;matrix_keypad.c: 102:     RD0 = 0;
   860     07C8  1008               	bcf	8,0	;volatile
   861     07C9                     l765:
   862                           
   863                           ;matrix_keypad.c: 104:     for (i = 100; i > 0; i--);
   864     07C9  3064               	movlw	100
   865     07CA  00F0               	movwf	scan_keypad@i
   866     07CB  3000               	movlw	0
   867     07CC  00F1               	movwf	scan_keypad@i+1
   868     07CD                     l771:
   869     07CD  30FF               	movlw	255
   870     07CE  07F0               	addwf	scan_keypad@i,f
   871     07CF  1803               	skipnc
   872     07D0  0AF1               	incf	scan_keypad@i+1,f
   873     07D1  30FF               	movlw	255
   874     07D2  07F1               	addwf	scan_keypad@i+1,f
   875     07D3                     l773:
   876     07D3  0871               	movf	scan_keypad@i+1,w
   877     07D4  3A80               	xorlw	128
   878     07D5  00FF               	movwf	btemp+1
   879     07D6  3080               	movlw	128
   880     07D7  027F               	subwf	btemp+1,w
   881     07D8  1D03               	skipz
   882     07D9  2FDC               	goto	u135
   883     07DA  3001               	movlw	1
   884     07DB  0270               	subwf	scan_keypad@i,w
   885     07DC                     u135:
   886     07DC  1803               	skipnc
   887     07DD  2FDF               	goto	u131
   888     07DE  2FE0               	goto	u130
   889     07DF                     u131:
   890     07DF  2FCD               	goto	l771
   891     07E0                     u130:
   892     07E0                     l50:
   893                           
   894                           ;matrix_keypad.c: 106:     if (RB0 == 0)
   895     07E0  1283               	bcf	3,5	;RP0=0, select bank0
   896     07E1  1303               	bcf	3,6	;RP1=0, select bank0
   897     07E2  1806               	btfsc	6,0	;volatile
   898     07E3  2FE5               	goto	u141
   899     07E4  2FE6               	goto	u140
   900     07E5                     u141:
   901     07E5  2FE8               	goto	l51
   902     07E6                     u140:
   903     07E6                     l775:
   904                           
   905                           ;matrix_keypad.c: 107:     {;matrix_keypad.c: 108:         return '*';
   906     07E6  302A               	movlw	42
   907     07E7  2FF5               	goto	l30
   908     07E8                     l51:	
   909                           ;matrix_keypad.c: 110:     else if (RB1 == 0)
   910                           
   911     07E8  1886               	btfsc	6,1	;volatile
   912     07E9  2FEB               	goto	u151
   913     07EA  2FEC               	goto	u150
   914     07EB                     u151:
   915     07EB  2FEE               	goto	l53
   916     07EC                     u150:
   917     07EC                     l781:
   918                           
   919                           ;matrix_keypad.c: 111:     {;matrix_keypad.c: 112:         return 0;
   920     07EC  3000               	movlw	0
   921     07ED  2FF5               	goto	l30
   922     07EE                     l53:	
   923                           ;matrix_keypad.c: 114:     else if (RB2 == 0)
   924                           
   925     07EE  1906               	btfsc	6,2	;volatile
   926     07EF  2FF1               	goto	u161
   927     07F0  2FF2               	goto	u160
   928     07F1                     u161:
   929     07F1  2FF4               	goto	l791
   930     07F2                     u160:
   931     07F2                     l787:
   932                           
   933                           ;matrix_keypad.c: 115:     {;matrix_keypad.c: 116:         return '#';
   934     07F2  3023               	movlw	35
   935     07F3  2FF5               	goto	l30
   936     07F4                     l791:
   937                           
   938                           ;matrix_keypad.c: 119:     return 0xFF;
   939     07F4  30FF               	movlw	255
   940     07F5                     l30:
   941     07F5  0008               	return
   942     07F6                     __end_of_scan_keypad:
   943                           
   944                           	psect	text3
   945     06B6                     __ptext3:	
   946 ;; *************** function _init_config *****************
   947 ;; Defined at:
   948 ;;		line 17 in file "main.c"
   949 ;; Parameters:    Size  Location     Type
   950 ;;		None
   951 ;; Auto vars:     Size  Location     Type
   952 ;;		None
   953 ;; Return value:  Size  Location     Type
   954 ;;                  1    wreg      void 
   955 ;; Registers used:
   956 ;;		wreg, status,2, status,0, pclath, cstack
   957 ;; Tracked objects:
   958 ;;		On entry : 0/0
   959 ;;		On exit  : 0/0
   960 ;;		Unchanged: 0/0
   961 ;; Data sizes:     COMMON   BANK0   BANK1   BANK3   BANK2
   962 ;;      Params:         0       0       0       0       0
   963 ;;      Locals:         0       0       0       0       0
   964 ;;      Temps:          0       0       0       0       0
   965 ;;      Totals:         0       0       0       0       0
   966 ;;Total ram usage:        0 bytes
   967 ;; Hardware stack levels used: 1
   968 ;; Hardware stack levels required when called: 1
   969 ;; This function calls:
   970 ;;		_init_matrix_keypad
   971 ;; This function is called by:
   972 ;;		_main
   973 ;; This function uses a non-reentrant model
   974 ;;
   975                           
   976     06B6                     _init_config:	
   977                           ;psect for function _init_config
   978                           
   979     06B6                     l825:	
   980                           ;incstack = 0
   981                           ; Regs used in _init_config: [wreg+status,2+status,0+pclath+cstack]
   982                           
   983                           
   984                           ;main.c: 19:         {
   985     06B6  120A  118A  26C2  120A  118A  	fcall	_init_matrix_keypad
   986     06BB                     l827:
   987                           
   988                           ;main.c: 20:             RD4 = !RD4;
   989     06BB  1683               	bsf	3,5	;RP0=1, select bank1
   990     06BC  1303               	bcf	3,6	;RP1=0, select bank1
   991     06BD  1208               	bcf	8,4	;volatile
   992     06BE                     l829:
   993                           
   994                           ;main.c: 21:             for(unsigned long int delay = 50000; delay > 0; delay-- );
   995     06BE  1283               	bcf	3,5	;RP0=0, select bank0
   996     06BF  1303               	bcf	3,6	;RP1=0, select bank0
   997     06C0  1208               	bcf	8,4	;volatile
   998     06C1                     l76:
   999     06C1  0008               	return
  1000     06C2                     __end_of_init_config:
  1001                           
  1002                           	psect	text4
  1003     06C2                     __ptext4:	
  1004 ;; *************** function _init_matrix_keypad *****************
  1005 ;; Defined at:
  1006 ;;		line 12 in file "matrix_keypad.c"
  1007 ;; Parameters:    Size  Location     Type
  1008 ;;		None
  1009 ;; Auto vars:     Size  Location     Type
  1010 ;;		None
  1011 ;; Return value:  Size  Location     Type
  1012 ;;                  1    wreg      void 
  1013 ;; Registers used:
  1014 ;;		wreg, status,2
  1015 ;; Tracked objects:
  1016 ;;		On entry : 0/0
  1017 ;;		On exit  : 0/0
  1018 ;;		Unchanged: 0/0
  1019 ;; Data sizes:     COMMON   BANK0   BANK1   BANK3   BANK2
  1020 ;;      Params:         0       0       0       0       0
  1021 ;;      Locals:         0       0       0       0       0
  1022 ;;      Temps:          0       0       0       0       0
  1023 ;;      Totals:         0       0       0       0       0
  1024 ;;Total ram usage:        0 bytes
  1025 ;; Hardware stack levels used: 1
  1026 ;; This function calls:
  1027 ;;		Nothing
  1028 ;; This function is called by:
  1029 ;;		_init_config
  1030 ;; This function uses a non-reentrant model
  1031 ;;
  1032                           
  1033     06C2                     _init_matrix_keypad:	
  1034                           ;psect for function _init_matrix_keypad
  1035                           
  1036     06C2                     l679:	
  1037                           ;incstack = 0
  1038                           ; Regs used in _init_matrix_keypad: [wreg+status,2]
  1039                           
  1040                           
  1041                           ;matrix_keypad.c: 16:     TRISB = TRISB | 0x07;
  1042     06C2  1683               	bsf	3,5	;RP0=1, select bank1
  1043     06C3  1303               	bcf	3,6	;RP1=0, select bank1
  1044     06C4  0806               	movf	6,w	;volatile
  1045     06C5  3807               	iorlw	7
  1046     06C6  0086               	movwf	6	;volatile
  1047                           
  1048                           ;matrix_keypad.c: 20:     TRISD = TRISD & 0xF0;
  1049     06C7  0808               	movf	8,w	;volatile
  1050     06C8  39F0               	andlw	240
  1051     06C9  0088               	movwf	8	;volatile
  1052     06CA                     l681:
  1053                           
  1054                           ;matrix_keypad.c: 23:     nRBPU = 0;
  1055     06CA  1381               	bcf	1,7	;volatile
  1056     06CB                     l683:
  1057                           
  1058                           ;matrix_keypad.c: 26:     RD3 = 1;
  1059     06CB  1283               	bcf	3,5	;RP0=0, select bank0
  1060     06CC  1303               	bcf	3,6	;RP1=0, select bank0
  1061     06CD  1588               	bsf	8,3	;volatile
  1062     06CE                     l685:
  1063                           
  1064                           ;matrix_keypad.c: 27:     RD2 = 1;
  1065     06CE  1508               	bsf	8,2	;volatile
  1066     06CF                     l687:
  1067                           
  1068                           ;matrix_keypad.c: 28:     RD1 = 1;
  1069     06CF  1488               	bsf	8,1	;volatile
  1070     06D0                     l689:
  1071                           
  1072                           ;matrix_keypad.c: 29:     RD0 = 1;
  1073     06D0  1408               	bsf	8,0	;volatile
  1074     06D1                     l23:
  1075     06D1  0008               	return
  1076     06D2                     __end_of_init_matrix_keypad:
  1077     007E                     btemp	set	126	;btemp
  1078     007E                     wtemp0	set	126
  1079                           
  1080                           	psect	config
  1081                           
  1082                           ;Config register CONFIG @ 0x2007
  1083                           ;	Oscillator Selection bits
  1084                           ;	FOSC = 0x3, unprogrammed default
  1085                           ;	Watchdog Timer Enable bit
  1086                           ;	WDTE = OFF, WDT disabled
  1087                           ;	Power-up Timer Enable bit
  1088                           ;	PWRTE = 0x1, unprogrammed default
  1089                           ;	Brown-out Reset Enable bit
  1090                           ;	BOREN = 0x1, unprogrammed default
  1091                           ;	Low-Voltage (Single-Supply) In-Circuit Serial Programming Enable bit
  1092                           ;	LVP = 0x1, unprogrammed default
  1093                           ;	Data EEPROM Memory Code Protection bit
  1094                           ;	CPD = 0x1, unprogrammed default
  1095                           ;	Flash Program Memory Write Enable bits
  1096                           ;	WRT = 0x3, unprogrammed default
  1097                           ;	In-Circuit Debugger Mode bit
  1098                           ;	DEBUG = 0x1, unprogrammed default
  1099                           ;	Flash Program Memory Code Protection bit
  1100                           ;	CP = 0x1, unprogrammed default
  1101     2007                     	org	8199
  1102     2007  3FFB               	dw	16379

Data Sizes:
    Strings     0
    Constant    0
    Data        1
    BSS         0
    Persistent  0
    Stack       0

Auto Spaces:
    Space          Size  Autos    Used
    COMMON           14     13      14
    BANK0            80      0       0
    BANK1            80      0       0
    BANK3            96      0       0
    BANK2            96      0       0

Pointer List with Targets:

    None.

Critical Paths under _main in COMMON

    _main->_read_matrix_keypad
    _read_matrix_keypad->_scan_keypad

Critical Paths under _main in BANK0

    None.

Critical Paths under _main in BANK1

    None.

Critical Paths under _main in BANK3

    None.

Critical Paths under _main in BANK2

    None.

Call Graph Tables:

 ---------------------------------------------------------------------------------
 (Depth) Function   	        Calls       Base Space   Used Autos Params    Refs
 ---------------------------------------------------------------------------------
 (0) _main                                                 9     9      0     225
                                              4 COMMON     9     9      0
                        _init_config
                 _read_matrix_keypad
 ---------------------------------------------------------------------------------
 (1) _read_matrix_keypad                                   2     2      0     180
                                              2 COMMON     2     2      0
                        _scan_keypad
 ---------------------------------------------------------------------------------
 (2) _scan_keypad                                          2     2      0     105
                                              0 COMMON     2     2      0
 ---------------------------------------------------------------------------------
 (1) _init_config                                          0     0      0       0
                 _init_matrix_keypad
 ---------------------------------------------------------------------------------
 (2) _init_matrix_keypad                                   0     0      0       0
 ---------------------------------------------------------------------------------
 Estimated maximum stack depth 2
 ---------------------------------------------------------------------------------

 Call Graph Graphs:

 _main (ROOT)
   _init_config
     _init_matrix_keypad
   _read_matrix_keypad
     _scan_keypad

 Address spaces:
Name               Size   Autos  Total    Cost      Usage
BANK3               60      0       0       9        0.0%
BITBANK3            60      0       0       8        0.0%
SFR3                 0      0       0       4        0.0%
BITSFR3              0      0       0       4        0.0%
BANK2               60      0       0      11        0.0%
BITBANK2            60      0       0      10        0.0%
SFR2                 0      0       0       5        0.0%
BITSFR2              0      0       0       5        0.0%
BANK1               50      0       0       7        0.0%
BITBANK1            50      0       0       6        0.0%
SFR1                 0      0       0       2        0.0%
BITSFR1              0      0       0       2        0.0%
BANK0               50      0       0       5        0.0%
BITBANK0            50      0       0       4        0.0%
SFR0                 0      0       0       1        0.0%
BITSFR0              0      0       0       1        0.0%
COMMON               E      D       E       1      100.0%
BITCOMMON            E      0       0       0        0.0%
CODE                 0      0       0       0        0.0%
DATA                 0      0       E      12        0.0%
ABS                  0      0       E       3        0.0%
NULL                 0      0       0       0        0.0%
STACK                0      0       0       2        0.0%
EEDATA             100      0       0       0        0.0%


Microchip Technology PIC Macro Assembler V2.41 build 20230208172133 
Symbol Table                                                                                   Fri Oct 06 21:15:29 2023

                        l30 07F5                          l23 06D1                          l31 0767  
                        l32 0761                          l50 07E0                          l51 07E8  
                        l43 07B1                          l44 07B9                          l36 0782  
                        l28 0753                          l53 07EE                          l45 07C5  
                        l37 078A                          l29 075B                          l61 06F4  
                        l46 07BF                          l38 0796                          l39 0790  
                        l76 06C1                          u10 0753                          u11 0752  
                        u20 0759                          u21 0758                          u30 075F  
                        u31 075E                          u40 0765                          u41 0764  
                        u50 0782                          u51 0781                          u60 0788  
                        u61 0787                          u70 078E                          u71 078D  
                        u55 077E                          u80 0794                          u81 0793  
                        u90 07B1                          u91 07B0                          u95 07AD  
        _init_matrix_keypad 06C2                         l703 075F                         l721 0775  
                       l713 076B                         l723 0788                         l709 0765  
                       l821 06F3                         l805 06E0                         l735 0794  
                       l719 076F                         l807 06E5                         l831 06F5  
                       l681 06CA                         l825 06B6                         l761 07C3  
                       l745 079E                         l729 078E                         l809 06EA  
                       l817 06EC                         l841 0713                         l833 06FA  
                       l683 06CB                         l827 06BB                         l771 07CD  
                       l755 07BD                         l747 07A4                         l739 079A  
                       l691 073B                         l819 06F1                         l835 0701  
                       l685 06CE                         l829 06BE                         l781 07EC  
                       l773 07D3                         l765 07C9                         l749 07B7  
                       l693 0741                         l837 0707                         l687 06CF  
                       l679 06C2                         l791 07F4                         l775 07E6  
                       l695 0745                         l689 06D0                         l697 0759  
                       l787 07F2                         l795 06D3                         l797 06D9  
                       l799 06DE                         _RB0 0030                         _RB1 0031  
                       _RB2 0032                         _RD0 0040                         _RD1 0041  
                       _RD2 0042                         _RD3 0043                         u100 07B7  
                       _RD4 0044                         u101 07B6                         u110 07BD  
                       u111 07BC                         u120 07C3                         u200 06F1  
                       u121 07C2                         u201 06F0                         u130 07E0  
                       u210 0707                         u131 07DF                         u211 0706  
                       u140 07E6                         u220 072F                         u141 07E5  
                       u150 07EC                         u230 0737                         u151 07EB  
                       u135 07DC                         u231 0736                         u160 07F2  
                       u161 07F1                         u225 0722                         u170 06DE  
                       u226 0723                         u171 06DD                         u227 0728  
                       u180 06E5                         u228 0729                         u181 06E4  
                       u229 072E                         u190 06EA                         u191 06E9  
       ?_init_matrix_keypad 0070                        _main 06F5                        btemp 007E  
                      start 0000        ??_init_matrix_keypad 0070                       ?_main 0070  
              ?_init_config 0070                       _TRISB 0086                       _TRISD 0088  
                     _nRBPU 040F          _read_matrix_keypad 06D2         ?_read_matrix_keypad 0070  
                     status 0003                       wtemp0 007E                ?_scan_keypad 0070  
           __initialization 07F6                __end_of_main 073B        ??_read_matrix_keypad 0072  
                    ??_main 0074                      _TRISD4 0444                __pdataCOMMON 007D  
   __end_of__initialization 07FC              __pcstackCOMMON 0070                  __pmaintext 06F5  
                   __ptext1 06D2                     __ptext2 073B                     __ptext3 06B6  
                   __ptext4 06C2                     main@key 0078        end_of_initialization 07FC  
             __pidataCOMMON 06B5         start_initialization 07F6                scan_keypad@i 0070  
    read_matrix_keypad@mode 0072      read_matrix_keypad@once 007D               ??_init_config 0070  
                 ___latbits 0002               ??_scan_keypad 0070         __end_of_init_config 06C2  
__end_of_init_matrix_keypad 06D2         __end_of_scan_keypad 07F6                   main@delay 0079  
     read_matrix_keypad@key 0073  __end_of_read_matrix_keypad 06F5                 _init_config 06B6  
               _scan_keypad 073B  
